target datalayout = "e-m:e-p270:32:32-p271:32:32-p272:64:64-i64:64-i128:128-f80:128-n8:16:32:64-S128"
target triple = "x86_64-pc-linux-gnu"

%struct.IDAMemRec = type { ptr, double, ptr, ptr, i32, double, double, ptr, i32, i32, ptr, ptr, i32, i32, [6 x ptr], [6 x double], [6 x double], [6 x double], [6 x double], [6 x double], ptr, ptr, ptr, ptr, ptr, ptr, ptr, ptr, ptr, ptr, ptr, ptr, ptr, ptr, ptr, ptr, ptr, double, ptr, ptr, i32, i32, i32, i32, i32, i32, i32, i32, double, double, double, i32, double, i32, i32, i32, i32, i32, double, double, double, double, double, double, double, double, double, double, double, double, double, double, double, double, i32, i32, i32, i32, i64, double, double, double, double, double, double, double, double, double, i64, i64, i64, i64, i64, i64, i64, i64, i64, i64, i64, double, i32, i32, i32, i32, i32, ptr, i32, ptr, ptr, ptr, ptr, ptr, ptr, ptr, double, i32, ptr, i32, ptr, ptr, double, double, double, ptr, ptr, ptr, double, double, i32, i32, i64, ptr, i32, [6 x double], [5 x double], [6 x ptr], [6 x ptr] }
%struct.IDALsMemRec = type { i32, i32, i32, ptr, ptr, ptr, ptr, ptr, ptr, ptr, ptr, ptr, ptr, i32, double, double, double, i64, i64, i64, i64, i64, i64, i64, i64, i64, i64, i64, i64, i64, i64, double, i32, ptr, ptr, ptr, ptr, i32, ptr, ptr, ptr, ptr }
%struct._generic_SUNMatrix = type { ptr, ptr, ptr }
%struct._generic_SUNMatrix_Ops = type { ptr, ptr, ptr, ptr, ptr, ptr, ptr, ptr, ptr, ptr }

@.str = private unnamed_addr constant [112 x i8] c"generated/home/dtcxzyw/WorkSpace/Projects/compilers/llvm-opt-benchmark/bench/sundials/sundials/src/ida/ida_ls.c\00", align 1
@.str.30 = private unnamed_addr constant [30 x i8] c"Linear solver memory is NULL.\00", align 1
@__func__.idaLsInitialize = private unnamed_addr constant [16 x i8] c"idaLsInitialize\00", align 1
@.str.32 = private unnamed_addr constant [53 x i8] c"No Jacobian constructor available for SUNMatrix type\00", align 1

; Function Attrs: nounwind uwtable
define i32 @idaLsInitializeCounters(ptr noundef %0) #0 {
  %2 = alloca ptr, align 8
  store ptr %0, ptr %2, align 8, !tbaa !45
  %3 = load ptr, ptr %2, align 8, !tbaa !45
  %4 = getelementptr inbounds nuw %struct.IDALsMemRec, ptr %3, i32 0, i32 17
  store i64 0, ptr %4, align 8, !tbaa !89
  %5 = load ptr, ptr %2, align 8, !tbaa !45
  %6 = getelementptr inbounds nuw %struct.IDALsMemRec, ptr %5, i32 0, i32 22
  store i64 0, ptr %6, align 8, !tbaa !114
  %7 = load ptr, ptr %2, align 8, !tbaa !45
  %8 = getelementptr inbounds nuw %struct.IDALsMemRec, ptr %7, i32 0, i32 18
  store i64 0, ptr %8, align 8, !tbaa !115
  %9 = load ptr, ptr %2, align 8, !tbaa !45
  %10 = getelementptr inbounds nuw %struct.IDALsMemRec, ptr %9, i32 0, i32 19
  store i64 0, ptr %10, align 8, !tbaa !97
  %11 = load ptr, ptr %2, align 8, !tbaa !45
  %12 = getelementptr inbounds nuw %struct.IDALsMemRec, ptr %11, i32 0, i32 20
  store i64 0, ptr %12, align 8, !tbaa !95
  %13 = load ptr, ptr %2, align 8, !tbaa !45
  %14 = getelementptr inbounds nuw %struct.IDALsMemRec, ptr %13, i32 0, i32 21
  store i64 0, ptr %14, align 8, !tbaa !99
  %15 = load ptr, ptr %2, align 8, !tbaa !45
  %16 = getelementptr inbounds nuw %struct.IDALsMemRec, ptr %15, i32 0, i32 23
  store i64 0, ptr %16, align 8, !tbaa !96
  %17 = load ptr, ptr %2, align 8, !tbaa !45
  %18 = getelementptr inbounds nuw %struct.IDALsMemRec, ptr %17, i32 0, i32 24
  store i64 0, ptr %18, align 8, !tbaa !116
  ret i32 0
}

; Function Attrs: nounwind uwtable
define i32 @idaLsInitialize(ptr noundef %0) #0 {
  %2 = alloca i32, align 4
  %3 = alloca ptr, align 8
  %4 = alloca ptr, align 8
  %5 = alloca i32, align 4
  %6 = alloca i32, align 4
  store ptr %0, ptr %3, align 8, !tbaa !11
  call void @llvm.lifetime.start.p0(i64 8, ptr %4) #7
  call void @llvm.lifetime.start.p0(i64 4, ptr %5) #7
  %7 = load ptr, ptr %3, align 8, !tbaa !11
  %8 = getelementptr inbounds nuw %struct.IDAMemRec, ptr %7, i32 0, i32 113
  %9 = load ptr, ptr %8, align 8, !tbaa !75
  %10 = icmp eq ptr %9, null
  br i1 %10, label %11, label %13

11:                                               ; preds = %1
  %12 = load ptr, ptr %3, align 8, !tbaa !11
  call void (ptr, i32, i32, ptr, ptr, ptr, ...) @IDAProcessError(ptr noundef %12, i32 noundef -2, i32 noundef 1268, ptr noundef @__func__.idaLsInitialize, ptr noundef @.str, ptr noundef @.str.30)
  store i32 -2, ptr %2, align 4
  store i32 1, ptr %6, align 4
  br label %137

13:                                               ; preds = %1
  %14 = load ptr, ptr %3, align 8, !tbaa !11
  %15 = getelementptr inbounds nuw %struct.IDAMemRec, ptr %14, i32 0, i32 113
  %16 = load ptr, ptr %15, align 8, !tbaa !75
  store ptr %16, ptr %4, align 8, !tbaa !45
  %17 = load ptr, ptr %4, align 8, !tbaa !45
  %18 = getelementptr inbounds nuw %struct.IDALsMemRec, ptr %17, i32 0, i32 6
  %19 = load ptr, ptr %18, align 8, !tbaa !51
  %20 = icmp eq ptr %19, null
  br i1 %20, label %21, label %28

21:                                               ; preds = %13
  %22 = load ptr, ptr %4, align 8, !tbaa !45
  %23 = getelementptr inbounds nuw %struct.IDALsMemRec, ptr %22, i32 0, i32 2
  store i32 0, ptr %23, align 8, !tbaa !52
  %24 = load ptr, ptr %4, align 8, !tbaa !45
  %25 = getelementptr inbounds nuw %struct.IDALsMemRec, ptr %24, i32 0, i32 3
  store ptr null, ptr %25, align 8, !tbaa !53
  %26 = load ptr, ptr %4, align 8, !tbaa !45
  %27 = getelementptr inbounds nuw %struct.IDALsMemRec, ptr %26, i32 0, i32 4
  store ptr null, ptr %27, align 8, !tbaa !54
  br label %82

28:                                               ; preds = %13
  %29 = load ptr, ptr %4, align 8, !tbaa !45
  %30 = getelementptr inbounds nuw %struct.IDALsMemRec, ptr %29, i32 0, i32 2
  %31 = load i32, ptr %30, align 8, !tbaa !52
  %32 = icmp ne i32 %31, 0
  br i1 %32, label %33, label %75

33:                                               ; preds = %28
  store i32 0, ptr %5, align 4, !tbaa !20
  %34 = load ptr, ptr %4, align 8, !tbaa !45
  %35 = getelementptr inbounds nuw %struct.IDALsMemRec, ptr %34, i32 0, i32 6
  %36 = load ptr, ptr %35, align 8, !tbaa !51
  %37 = getelementptr inbounds nuw %struct._generic_SUNMatrix, ptr %36, i32 0, i32 1
  %38 = load ptr, ptr %37, align 8, !tbaa !76
  %39 = getelementptr inbounds nuw %struct._generic_SUNMatrix_Ops, ptr %38, i32 0, i32 0
  %40 = load ptr, ptr %39, align 8, !tbaa !79
  %41 = icmp ne ptr %40, null
  br i1 %41, label %42, label %64

42:                                               ; preds = %33
  %43 = load ptr, ptr %4, align 8, !tbaa !45
  %44 = getelementptr inbounds nuw %struct.IDALsMemRec, ptr %43, i32 0, i32 6
  %45 = load ptr, ptr %44, align 8, !tbaa !51
  %46 = call i32 @SUNMatGetID(ptr noundef %45)
  %47 = icmp eq i32 %46, 0
  br i1 %47, label %54, label %48

48:                                               ; preds = %42
  %49 = load ptr, ptr %4, align 8, !tbaa !45
  %50 = getelementptr inbounds nuw %struct.IDALsMemRec, ptr %49, i32 0, i32 6
  %51 = load ptr, ptr %50, align 8, !tbaa !51
  %52 = call i32 @SUNMatGetID(ptr noundef %51)
  %53 = icmp eq i32 %52, 3
  br i1 %53, label %54, label %60

54:                                               ; preds = %48, %42
  %55 = load ptr, ptr %4, align 8, !tbaa !45
  %56 = getelementptr inbounds nuw %struct.IDALsMemRec, ptr %55, i32 0, i32 3
  store ptr @idaLsDQJac, ptr %56, align 8, !tbaa !53
  %57 = load ptr, ptr %3, align 8, !tbaa !11
  %58 = load ptr, ptr %4, align 8, !tbaa !45
  %59 = getelementptr inbounds nuw %struct.IDALsMemRec, ptr %58, i32 0, i32 4
  store ptr %57, ptr %59, align 8, !tbaa !54
  br label %63

60:                                               ; preds = %48
  %61 = load i32, ptr %5, align 4, !tbaa !20
  %62 = add nsw i32 %61, 1
  store i32 %62, ptr %5, align 4, !tbaa !20
  br label %63

63:                                               ; preds = %60, %54
  br label %67

64:                                               ; preds = %33
  %65 = load i32, ptr %5, align 4, !tbaa !20
  %66 = add nsw i32 %65, 1
  store i32 %66, ptr %5, align 4, !tbaa !20
  br label %67

67:                                               ; preds = %64, %63
  %68 = load i32, ptr %5, align 4, !tbaa !20
  %69 = icmp ne i32 %68, 0
  br i1 %69, label %70, label %74

70:                                               ; preds = %67
  %71 = load ptr, ptr %3, align 8, !tbaa !11
  call void (ptr, i32, i32, ptr, ptr, ptr, ...) @IDAProcessError(ptr noundef %71, i32 noundef -3, i32 noundef 1301, ptr noundef @__func__.idaLsInitialize, ptr noundef @.str, ptr noundef @.str.32)
  %72 = load ptr, ptr %4, align 8, !tbaa !45
  %73 = getelementptr inbounds nuw %struct.IDALsMemRec, ptr %72, i32 0, i32 32
  store i32 -3, ptr %73, align 8, !tbaa !68
  store i32 -3, ptr %2, align 4
  store i32 1, ptr %6, align 4
  br label %137

74:                                               ; preds = %67
  br label %81

75:                                               ; preds = %28
  %76 = load ptr, ptr %3, align 8, !tbaa !11
  %77 = getelementptr inbounds nuw %struct.IDAMemRec, ptr %76, i32 0, i32 3
  %78 = load ptr, ptr %77, align 8, !tbaa !64
  %79 = load ptr, ptr %4, align 8, !tbaa !45
  %80 = getelementptr inbounds nuw %struct.IDALsMemRec, ptr %79, i32 0, i32 4
  store ptr %78, ptr %80, align 8, !tbaa !54
  br label %81

81:                                               ; preds = %75, %74
  br label %82

82:                                               ; preds = %81, %21
  %83 = load ptr, ptr %4, align 8, !tbaa !45
  %84 = call i32 @idaLsInitializeCounters(ptr noundef %83)
  %85 = load ptr, ptr %4, align 8, !tbaa !45
  %86 = getelementptr inbounds nuw %struct.IDALsMemRec, ptr %85, i32 0, i32 37
  %87 = load i32, ptr %86, align 8, !tbaa !55
  %88 = icmp ne i32 %87, 0
  br i1 %88, label %89, label %97

89:                                               ; preds = %82
  %90 = load ptr, ptr %4, align 8, !tbaa !45
  %91 = getelementptr inbounds nuw %struct.IDALsMemRec, ptr %90, i32 0, i32 38
  store ptr null, ptr %91, align 8, !tbaa !56
  %92 = load ptr, ptr %4, align 8, !tbaa !45
  %93 = getelementptr inbounds nuw %struct.IDALsMemRec, ptr %92, i32 0, i32 39
  store ptr @idaLsDQJtimes, ptr %93, align 8, !tbaa !57
  %94 = load ptr, ptr %3, align 8, !tbaa !11
  %95 = load ptr, ptr %4, align 8, !tbaa !45
  %96 = getelementptr inbounds nuw %struct.IDALsMemRec, ptr %95, i32 0, i32 41
  store ptr %94, ptr %96, align 8, !tbaa !60
  br label %103

97:                                               ; preds = %82
  %98 = load ptr, ptr %3, align 8, !tbaa !11
  %99 = getelementptr inbounds nuw %struct.IDAMemRec, ptr %98, i32 0, i32 3
  %100 = load ptr, ptr %99, align 8, !tbaa !64
  %101 = load ptr, ptr %4, align 8, !tbaa !45
  %102 = getelementptr inbounds nuw %struct.IDALsMemRec, ptr %101, i32 0, i32 41
  store ptr %100, ptr %102, align 8, !tbaa !60
  br label %103

103:                                              ; preds = %97, %89
  %104 = load ptr, ptr %4, align 8, !tbaa !45
  %105 = getelementptr inbounds nuw %struct.IDALsMemRec, ptr %104, i32 0, i32 6
  %106 = load ptr, ptr %105, align 8, !tbaa !51
  %107 = icmp eq ptr %106, null
  br i1 %107, label %108, label %116

108:                                              ; preds = %103
  %109 = load ptr, ptr %4, align 8, !tbaa !45
  %110 = getelementptr inbounds nuw %struct.IDALsMemRec, ptr %109, i32 0, i32 33
  %111 = load ptr, ptr %110, align 8, !tbaa !61
  %112 = icmp eq ptr %111, null
  br i1 %112, label %113, label %116

113:                                              ; preds = %108
  %114 = load ptr, ptr %3, align 8, !tbaa !11
  %115 = getelementptr inbounds nuw %struct.IDAMemRec, ptr %114, i32 0, i32 109
  store ptr null, ptr %115, align 8, !tbaa !42
  br label %116

116:                                              ; preds = %113, %108, %103
  %117 = load ptr, ptr %4, align 8, !tbaa !45
  %118 = getelementptr inbounds nuw %struct.IDALsMemRec, ptr %117, i32 0, i32 5
  %119 = load ptr, ptr %118, align 8, !tbaa !47
  %120 = call i32 @SUNLinSolGetType(ptr noundef %119)
  %121 = icmp eq i32 %120, 3
  br i1 %121, label %122, label %127

122:                                              ; preds = %116
  %123 = load ptr, ptr %3, align 8, !tbaa !11
  %124 = getelementptr inbounds nuw %struct.IDAMemRec, ptr %123, i32 0, i32 109
  store ptr null, ptr %124, align 8, !tbaa !42
  %125 = load ptr, ptr %4, align 8, !tbaa !45
  %126 = getelementptr inbounds nuw %struct.IDALsMemRec, ptr %125, i32 0, i32 13
  store i32 0, ptr %126, align 8, !tbaa !74
  br label %127

127:                                              ; preds = %122, %116
  %128 = load ptr, ptr %4, align 8, !tbaa !45
  %129 = getelementptr inbounds nuw %struct.IDALsMemRec, ptr %128, i32 0, i32 5
  %130 = load ptr, ptr %129, align 8, !tbaa !47
  %131 = call i32 @SUNLinSolInitialize(ptr noundef %130)
  %132 = load ptr, ptr %4, align 8, !tbaa !45
  %133 = getelementptr inbounds nuw %struct.IDALsMemRec, ptr %132, i32 0, i32 32
  store i32 %131, ptr %133, align 8, !tbaa !68
  %134 = load ptr, ptr %4, align 8, !tbaa !45
  %135 = getelementptr inbounds nuw %struct.IDALsMemRec, ptr %134, i32 0, i32 32
  %136 = load i32, ptr %135, align 8, !tbaa !68
  store i32 %136, ptr %2, align 4
  store i32 1, ptr %6, align 4
  br label %137

137:                                              ; preds = %127, %70, %11
  call void @llvm.lifetime.end.p0(i64 4, ptr %5) #7
  call void @llvm.lifetime.end.p0(i64 8, ptr %4) #7
  %138 = load i32, ptr %2, align 4
  ret i32 %138
}