; Function Attrs: nounwind uwtable
define i32 @idaLsInitialize(ptr noundef %0) #0 {
  %2 = getelementptr inbounds nuw i8, ptr %0, i64 1048
  %3 = load ptr, ptr %2, align 8, !tbaa !65
  %4 = icmp eq ptr %3, null
  br i1 %4, label %5, label %6

5:                                                ; preds = %1
  tail call void (ptr, i32, i32, ptr, ptr, ptr, ...) @IDAProcessError(ptr noundef nonnull %0, i32 noundef -2, i32 noundef 1268, ptr noundef nonnull @__func__.idaLsInitialize, ptr noundef nonnull @.str, ptr noundef nonnull @.str.30) #13
  br label %66

6:                                                ; preds = %1
  %7 = getelementptr inbounds nuw i8, ptr %3, i64 40
  %8 = load ptr, ptr %7, align 8, !tbaa !43
  %9 = icmp eq ptr %8, null
  %10 = getelementptr inbounds nuw i8, ptr %3, i64 8
  br i1 %9, label %11, label %13

11:                                               ; preds = %6
  store i32 0, ptr %10, align 8, !tbaa !44
  %12 = getelementptr inbounds nuw i8, ptr %3, i64 16
  tail call void @llvm.memset.p0.i64(ptr noundef nonnull align 8 dereferenceable(16) %12, i8 0, i64 16, i1 false)
  br label %34

13:                                               ; preds = %6
  %14 = load i32, ptr %10, align 8, !tbaa !44
  %.not = icmp eq i32 %14, 0
  br i1 %.not, label %30, label %15

15:                                               ; preds = %13
  %16 = getelementptr inbounds nuw i8, ptr %8, i64 8
  %17 = load ptr, ptr %16, align 8, !tbaa !66
  %18 = load ptr, ptr %17, align 8, !tbaa !69
  %.not41 = icmp eq ptr %18, null
  br i1 %.not41, label %28, label %19

19:                                               ; preds = %15
  %20 = tail call i32 @SUNMatGetID(ptr noundef nonnull %8) #13
  %21 = icmp eq i32 %20, 0
  br i1 %21, label %.critedge, label %22

22:                                               ; preds = %19
  %23 = load ptr, ptr %7, align 8, !tbaa !43
  %24 = tail call i32 @SUNMatGetID(ptr noundef %23) #13
  %25 = icmp eq i32 %24, 3
  br i1 %25, label %.critedge, label %28

.critedge:                                        ; preds = %22, %19
  %26 = getelementptr inbounds nuw i8, ptr %3, i64 16
  store ptr @idaLsDQJac, ptr %26, align 8, !tbaa !45
  %27 = getelementptr inbounds nuw i8, ptr %3, i64 24
  store ptr %0, ptr %27, align 8, !tbaa !46
  br label %34

28:                                               ; preds = %22, %15
  tail call void (ptr, i32, i32, ptr, ptr, ptr, ...) @IDAProcessError(ptr noundef nonnull %0, i32 noundef -3, i32 noundef 1301, ptr noundef nonnull @__func__.idaLsInitialize, ptr noundef nonnull @.str, ptr noundef nonnull @.str.32) #13
  %29 = getelementptr inbounds nuw i8, ptr %3, i64 248
  store i32 -3, ptr %29, align 8, !tbaa !57
  br label %66

30:                                               ; preds = %13
  %31 = getelementptr inbounds nuw i8, ptr %0, i64 24
  %32 = load ptr, ptr %31, align 8, !tbaa !53
  %33 = getelementptr inbounds nuw i8, ptr %3, i64 24
  store ptr %32, ptr %33, align 8, !tbaa !46
  br label %34

34:                                               ; preds = %.critedge, %30, %11
  %35 = getelementptr inbounds nuw i8, ptr %3, i64 128
  tail call void @llvm.memset.p0.i64(ptr noundef nonnull align 8 dereferenceable(64) %35, i8 0, i64 64, i1 false)
  %36 = getelementptr inbounds nuw i8, ptr %3, i64 288
  %37 = load i32, ptr %36, align 8, !tbaa !47
  %.not43 = icmp eq i32 %37, 0
  br i1 %.not43, label %41, label %38

38:                                               ; preds = %34
  %39 = getelementptr inbounds nuw i8, ptr %3, i64 296
  store ptr null, ptr %39, align 8, !tbaa !48
  %40 = getelementptr inbounds nuw i8, ptr %3, i64 304
  store ptr @idaLsDQJtimes, ptr %40, align 8, !tbaa !49
  br label %44

41:                                               ; preds = %34
  %42 = getelementptr inbounds nuw i8, ptr %0, i64 24
  %43 = load ptr, ptr %42, align 8, !tbaa !53
  br label %44

44:                                               ; preds = %41, %38
  %.sink = phi ptr [ %43, %41 ], [ %0, %38 ]
  %45 = getelementptr inbounds nuw i8, ptr %3, i64 320
  store ptr %.sink, ptr %45, align 8, !tbaa !52
  %46 = load ptr, ptr %7, align 8, !tbaa !43
  %47 = icmp eq ptr %46, null
  br i1 %47, label %48, label %54

48:                                               ; preds = %44
  %49 = getelementptr inbounds nuw i8, ptr %3, i64 256
  %50 = load ptr, ptr %49, align 8, !tbaa !71
  %51 = icmp eq ptr %50, null
  br i1 %51, label %52, label %54

52:                                               ; preds = %48
  %53 = getelementptr inbounds nuw i8, ptr %0, i64 1016
  store ptr null, ptr %53, align 8, !tbaa !34
  br label %54

54:                                               ; preds = %52, %48, %44
  %55 = getelementptr inbounds nuw i8, ptr %3, i64 32
  %56 = load ptr, ptr %55, align 8, !tbaa !37
  %57 = tail call i32 @SUNLinSolGetType(ptr noundef %56) #13
  %58 = icmp eq i32 %57, 3
  br i1 %58, label %59, label %62

59:                                               ; preds = %54
  %60 = getelementptr inbounds nuw i8, ptr %0, i64 1016
  store ptr null, ptr %60, align 8, !tbaa !34
  %61 = getelementptr inbounds nuw i8, ptr %3, i64 96
  store i32 0, ptr %61, align 8, !tbaa !64
  br label %62

62:                                               ; preds = %59, %54
  %63 = load ptr, ptr %55, align 8, !tbaa !37
  %64 = tail call i32 @SUNLinSolInitialize(ptr noundef %63) #13
  %65 = getelementptr inbounds nuw i8, ptr %3, i64 248
  store i32 %64, ptr %65, align 8, !tbaa !57
  br label %66

66:                                               ; preds = %62, %28, %5
  %.038 = phi i32 [ -2, %5 ], [ %64, %62 ], [ -3, %28 ]
  ret i32 %.038
}